#include <math.h>
#include <stdio.h>
#include <stdlib.h>
#include <string.h>


int main()
{
	int i,j,k,l,n,m,row,col;
	int a[200][200]={0};
	scanf("%d%d",&row,&col);
	for(i=1;i<=row;i++)
		for(j=1;j<=col;j++)
			scanf("%d",&a[i][j]);
	for(i=1;i<row+col+1;i++)
		for(j=1;j<=i;j++)
			if(a[j][i-j]!=0)
			printf("%d\n",a[j][i-j]);
	return 0;
}