; ModuleID = 'source-C-CXX/3/2023.c'
source_filename = "source-C-CXX/3/2023.c"
target datalayout = "e-m:e-p270:32:32-p271:32:32-p272:64:64-i64:64-f80:128-n8:16:32:64-S128"
target triple = "x86_64-pc-linux-gnu"

@.str = private unnamed_addr constant [5 x i8] c"%d%d\00", align 1
@.str.1 = private unnamed_addr constant [3 x i8] c"%d\00", align 1
@.str.2 = private unnamed_addr constant [4 x i8] c"%d\0A\00", align 1

; Function Attrs: nofree nounwind sspstrong uwtable
define dso_local i32 @main() local_unnamed_addr #0 {
  %1 = alloca i32, align 4
  %2 = alloca i32, align 4
  %3 = alloca [200 x [200 x i32]], align 16
  %4 = bitcast i32* %1 to i8*
  call void @llvm.lifetime.start.p0i8(i64 4, i8* nonnull %4) #4
  %5 = bitcast i32* %2 to i8*
  call void @llvm.lifetime.start.p0i8(i64 4, i8* nonnull %5) #4
  %6 = bitcast [200 x [200 x i32]]* %3 to i8*
  call void @llvm.lifetime.start.p0i8(i64 160000, i8* nonnull %6) #4
  call void @llvm.memset.p0i8.i64(i8* noundef nonnull align 16 dereferenceable(160000) %6, i8 0, i64 160000, i1 false)
  %7 = call i32 (i8*, ...) @__isoc99_scanf(i8* getelementptr inbounds ([5 x i8], [5 x i8]* @.str, i64 0, i64 0), i32* nonnull %1, i32* nonnull %2)
  %8 = load i32, i32* %1, align 4, !tbaa !5
  %9 = icmp slt i32 %8, 1
  %10 = load i32, i32* %2, align 4, !tbaa !5
  %11 = icmp slt i32 %10, 1
  %12 = select i1 %9, i1 true, i1 %11
  br i1 %12, label %18, label %13

13:                                               ; preds = %0, %33
  %14 = phi i32 [ %34, %33 ], [ %8, %0 ]
  %15 = phi i32 [ %35, %33 ], [ %10, %0 ]
  %16 = phi i64 [ %36, %33 ], [ 1, %0 ]
  %17 = icmp slt i32 %15, 1
  br i1 %17, label %33, label %23

18:                                               ; preds = %33, %0
  %19 = phi i32 [ %10, %0 ], [ %35, %33 ]
  %20 = phi i32 [ %8, %0 ], [ %34, %33 ]
  %21 = add nsw i32 %19, %20
  %22 = icmp slt i32 %21, 1
  br i1 %22, label %61, label %39

23:                                               ; preds = %13, %23
  %24 = phi i64 [ %27, %23 ], [ 1, %13 ]
  %25 = getelementptr inbounds [200 x [200 x i32]], [200 x [200 x i32]]* %3, i64 0, i64 %16, i64 %24
  %26 = call i32 (i8*, ...) @__isoc99_scanf(i8* getelementptr inbounds ([3 x i8], [3 x i8]* @.str.1, i64 0, i64 0), i32* nonnull %25)
  %27 = add nuw nsw i64 %24, 1
  %28 = load i32, i32* %2, align 4, !tbaa !5
  %29 = sext i32 %28 to i64
  %30 = icmp slt i64 %24, %29
  br i1 %30, label %23, label %31, !llvm.loop !9

31:                                               ; preds = %23
  %32 = load i32, i32* %1, align 4, !tbaa !5
  br label %33

33:                                               ; preds = %31, %13
  %34 = phi i32 [ %32, %31 ], [ %14, %13 ]
  %35 = phi i32 [ %28, %31 ], [ %15, %13 ]
  %36 = add nuw nsw i64 %16, 1
  %37 = sext i32 %34 to i64
  %38 = icmp slt i64 %16, %37
  br i1 %38, label %13, label %18, !llvm.loop !11

39:                                               ; preds = %18, %53
  %40 = phi i64 [ %54, %53 ], [ 1, %18 ]
  %41 = phi i64 [ %60, %53 ], [ 2, %18 ]
  br label %42

42:                                               ; preds = %39, %50
  %43 = phi i64 [ 1, %39 ], [ %51, %50 ]
  %44 = sub nsw i64 %40, %43
  %45 = getelementptr inbounds [200 x [200 x i32]], [200 x [200 x i32]]* %3, i64 0, i64 %43, i64 %44
  %46 = load i32, i32* %45, align 4, !tbaa !5
  %47 = icmp eq i32 %46, 0
  br i1 %47, label %50, label %48

48:                                               ; preds = %42
  %49 = call i32 (i8*, ...) @printf(i8* nonnull dereferenceable(1) getelementptr inbounds ([4 x i8], [4 x i8]* @.str.2, i64 0, i64 0), i32 %46)
  br label %50

50:                                               ; preds = %42, %48
  %51 = add nuw nsw i64 %43, 1
  %52 = icmp eq i64 %51, %41
  br i1 %52, label %53, label %42, !llvm.loop !13

53:                                               ; preds = %50
  %54 = add nuw nsw i64 %40, 1
  %55 = load i32, i32* %1, align 4, !tbaa !5
  %56 = load i32, i32* %2, align 4, !tbaa !5
  %57 = add nsw i32 %56, %55
  %58 = sext i32 %57 to i64
  %59 = icmp slt i64 %40, %58
  %60 = add nuw nsw i64 %41, 1
  br i1 %59, label %39, label %61, !llvm.loop !14

61:                                               ; preds = %53, %18
  call void @llvm.lifetime.end.p0i8(i64 160000, i8* nonnull %6) #4
  call void @llvm.lifetime.end.p0i8(i64 4, i8* nonnull %5) #4
  call void @llvm.lifetime.end.p0i8(i64 4, i8* nonnull %4) #4
  ret i32 0
}

; Function Attrs: argmemonly mustprogress nofree nosync nounwind willreturn
declare void @llvm.lifetime.start.p0i8(i64 immarg, i8* nocapture) #1

; Function Attrs: argmemonly mustprogress nofree nounwind willreturn writeonly
declare void @llvm.memset.p0i8.i64(i8* nocapture writeonly, i8, i64, i1 immarg) #2

; Function Attrs: nofree nounwind
declare noundef i32 @__isoc99_scanf(i8* nocapture noundef readonly, ...) local_unnamed_addr #3

; Function Attrs: nofree nounwind
declare noundef i32 @printf(i8* nocapture noundef readonly, ...) local_unnamed_addr #3

; Function Attrs: argmemonly mustprogress nofree nosync nounwind willreturn
declare void @llvm.lifetime.end.p0i8(i64 immarg, i8* nocapture) #1


!llvm.module.flags = !{!0, !1, !2, !3}
!llvm.ident = !{!4}

!0 = !{i32 1, !"wchar_size", i32 4}
!1 = !{i32 7, !"PIC Level", i32 2}
!2 = !{i32 7, !"PIE Level", i32 2}
!3 = !{i32 7, !"uwtable", i32 1}
!4 = !{!"clang version 13.0.0"}
!5 = !{!6, !6, i64 0}
!6 = !{!"int", !7, i64 0}
!7 = !{!"omnipotent char", !8, i64 0}
!8 = !{!"Simple C/C++ TBAA"}
!9 = distinct !{!9, !10}
!10 = !{!"llvm.loop.mustprogress"}
!11 = distinct !{!11, !10, !12}
!12 = !{!"llvm.loop.unswitch.partial.disable"}
!13 = distinct !{!13, !10}
!14 = distinct !{!14, !10}
